; ModuleID = '11/161.c'
source_filename = "11/161.c"
target datalayout = "e-m:e-p270:32:32-p271:32:32-p272:64:64-i64:64-f80:128-n8:16:32:64-S128"
target triple = "x86_64-pc-linux-gnu"

@.str = private unnamed_addr constant [9 x i8] c"%d %d %d\00", align 1
@.str.1 = private unnamed_addr constant [4 x i8] c"%d\0A\00", align 1

; Function Attrs: noinline nounwind uwtable
define dso_local i32 @main() #0 {
  %1 = alloca i32, align 4
  %2 = alloca i32, align 4
  %3 = alloca i32, align 4
  %4 = alloca i32, align 4
  %5 = alloca i32, align 4
  %6 = alloca i32, align 4
  %7 = alloca i32, align 4
  %8 = alloca [13 x i32], align 16
  store i32 0, i32* %1, align 4
  store i32 0, i32* %7, align 4
  %9 = call i32 (i8*, ...) @__isoc99_scanf(i8* getelementptr inbounds ([9 x i8], [9 x i8]* @.str, i64 0, i64 0), i32* %2, i32* %3, i32* %4)
  %10 = getelementptr inbounds [13 x i32], [13 x i32]* %8, i64 0, i64 0
  store i32 0, i32* %10, align 16
  %11 = getelementptr inbounds [13 x i32], [13 x i32]* %8, i64 0, i64 12
  store i32 31, i32* %11, align 16
  %12 = getelementptr inbounds [13 x i32], [13 x i32]* %8, i64 0, i64 10
  store i32 31, i32* %12, align 8
  %13 = getelementptr inbounds [13 x i32], [13 x i32]* %8, i64 0, i64 8
  store i32 31, i32* %13, align 16
  %14 = getelementptr inbounds [13 x i32], [13 x i32]* %8, i64 0, i64 7
  store i32 31, i32* %14, align 4
  %15 = getelementptr inbounds [13 x i32], [13 x i32]* %8, i64 0, i64 5
  store i32 31, i32* %15, align 4
  %16 = getelementptr inbounds [13 x i32], [13 x i32]* %8, i64 0, i64 3
  store i32 31, i32* %16, align 4
  %17 = getelementptr inbounds [13 x i32], [13 x i32]* %8, i64 0, i64 1
  store i32 31, i32* %17, align 4
  %18 = getelementptr inbounds [13 x i32], [13 x i32]* %8, i64 0, i64 11
  store i32 30, i32* %18, align 4
  %19 = getelementptr inbounds [13 x i32], [13 x i32]* %8, i64 0, i64 9
  store i32 30, i32* %19, align 4
  %20 = getelementptr inbounds [13 x i32], [13 x i32]* %8, i64 0, i64 6
  store i32 30, i32* %20, align 8
  %21 = getelementptr inbounds [13 x i32], [13 x i32]* %8, i64 0, i64 4
  store i32 30, i32* %21, align 16
  %22 = load i32, i32* %2, align 4
  %23 = srem i32 %22, 4
  %24 = icmp ne i32 %23, 0
  br i1 %24, label %25, label %41

25:                                               ; preds = %0
  %26 = load i32, i32* %2, align 4
  %27 = srem i32 %26, 100
  %28 = icmp ne i32 %27, 0
  br i1 %28, label %29, label %38

29:                                               ; preds = %25
  %30 = load i32, i32* %2, align 4
  %31 = srem i32 %30, 400
  %32 = icmp ne i32 %31, 0
  br i1 %32, label %33, label %35

33:                                               ; preds = %29
  %34 = getelementptr inbounds [13 x i32], [13 x i32]* %8, i64 0, i64 2
  store i32 28, i32* %34, align 8
  br label %37

35:                                               ; preds = %29
  %36 = getelementptr inbounds [13 x i32], [13 x i32]* %8, i64 0, i64 2
  store i32 29, i32* %36, align 8
  br label %37

37:                                               ; preds = %35, %33
  br label %40

38:                                               ; preds = %25
  %39 = getelementptr inbounds [13 x i32], [13 x i32]* %8, i64 0, i64 2
  store i32 28, i32* %39, align 8
  br label %40

40:                                               ; preds = %38, %37
  br label %43

41:                                               ; preds = %0
  %42 = getelementptr inbounds [13 x i32], [13 x i32]* %8, i64 0, i64 2
  store i32 29, i32* %42, align 8
  br label %43

43:                                               ; preds = %41, %40
  store i32 0, i32* %5, align 4
  br label %44

44:                                               ; preds = %55, %43
  %45 = load i32, i32* %5, align 4
  %46 = load i32, i32* %3, align 4
  %47 = icmp slt i32 %45, %46
  br i1 %47, label %48, label %58

48:                                               ; preds = %44
  %49 = load i32, i32* %7, align 4
  %50 = load i32, i32* %5, align 4
  %51 = sext i32 %50 to i64
  %52 = getelementptr inbounds [13 x i32], [13 x i32]* %8, i64 0, i64 %51
  %53 = load i32, i32* %52, align 4
  %54 = add nsw i32 %49, %53
  store i32 %54, i32* %7, align 4
  br label %55

55:                                               ; preds = %48
  %56 = load i32, i32* %5, align 4
  %57 = add nsw i32 %56, 1
  store i32 %57, i32* %5, align 4
  br label %44

58:                                               ; preds = %44
  %59 = load i32, i32* %7, align 4
  %60 = load i32, i32* %4, align 4
  %61 = add nsw i32 %59, %60
  store i32 %61, i32* %6, align 4
  %62 = load i32, i32* %6, align 4
  %63 = call i32 (i8*, ...) @printf(i8* getelementptr inbounds ([4 x i8], [4 x i8]* @.str.1, i64 0, i64 0), i32 %62)
  ret i32 0
}

declare dso_local i32 @__isoc99_scanf(i8*, ...) #1

declare dso_local i32 @printf(i8*, ...) #1


!llvm.module.flags = !{!0}
!llvm.ident = !{!1}

!0 = !{i32 1, !"wchar_size", i32 4}
!1 = !{!"clang version 10.0.0-4ubuntu1 "}
